target datalayout = "e-m:e-p270:32:32-p271:32:32-p272:64:64-i64:64-i128:128-f80:128-n8:16:32:64-S128"
target triple = "x86_64-pc-linux-gnu"

%struct.If_DsdMan_t_ = type { ptr, i32, i32, i32, i32, ptr, ptr, %struct.Vec_Ptr_t_, %struct.Vec_Int_t_, %struct.Vec_Int_t_, ptr, ptr, ptr, [16 x ptr], [16 x ptr], [16 x ptr], [16 x ptr], i32, i32, ptr, ptr, ptr, ptr, ptr, i32, i32, i32, i32, i64, i64, i64, i64, i64 }
%struct.Vec_Ptr_t_ = type { i32, i32, ptr }
%struct.Vec_Int_t_ = type { i32, i32, ptr }
%struct.If_DsdObj_t_ = type { i32, i32, [0 x i32] }

; Function Attrs: inlinehint nounwind uwtable
define internal i32 @If_DsdVecObjSuppSize(ptr noundef %0, i32 noundef %1) #1 {
  %3 = alloca ptr, align 8
  %4 = alloca i32, align 4
  store ptr %0, ptr %3, align 8, !tbaa !22
  store i32 %1, ptr %4, align 4, !tbaa !27
  %5 = load ptr, ptr %3, align 8, !tbaa !22
  %6 = load i32, ptr %4, align 4, !tbaa !27
  %7 = call ptr @If_DsdVecObj(ptr noundef %5, i32 noundef %6)
  %8 = getelementptr inbounds nuw %struct.If_DsdObj_t_, ptr %7, i32 0, i32 1
  %9 = load i32, ptr %8, align 4
  %10 = lshr i32 %9, 3
  %11 = and i32 %10, 31
  ret i32 %11
}

; Function Attrs: inlinehint nounwind uwtable
define internal ptr @Vec_PtrEntry(ptr noundef %0, i32 noundef %1) #1 {
  %3 = alloca ptr, align 8
  %4 = alloca i32, align 4
  store ptr %0, ptr %3, align 8, !tbaa !22
  store i32 %1, ptr %4, align 4, !tbaa !27
  %5 = load ptr, ptr %3, align 8, !tbaa !22
  %6 = getelementptr inbounds nuw %struct.Vec_Ptr_t_, ptr %5, i32 0, i32 2
  %7 = load ptr, ptr %6, align 8, !tbaa !46
  %8 = load i32, ptr %4, align 4, !tbaa !27
  %9 = sext i32 %8 to i64
  %10 = getelementptr inbounds ptr, ptr %7, i64 %9
  %11 = load ptr, ptr %10, align 8, !tbaa !44
  ret ptr %11
}

; Function Attrs: inlinehint nounwind uwtable
define internal i32 @If_DsdVecLitSuppSize(ptr noundef %0, i32 noundef %1) #1 {
  %3 = alloca ptr, align 8
  %4 = alloca i32, align 4
  store ptr %0, ptr %3, align 8, !tbaa !22
  store i32 %1, ptr %4, align 4, !tbaa !27
  %5 = load ptr, ptr %3, align 8, !tbaa !22
  %6 = load i32, ptr %4, align 4, !tbaa !27
  %7 = call i32 @Abc_Lit2Var(i32 noundef %6)
  %8 = call i32 @If_DsdVecObjSuppSize(ptr noundef %5, i32 noundef %7)
  ret i32 %8
}

; Function Attrs: inlinehint nounwind uwtable
define internal i32 @If_DsdObjFaninLit(ptr noundef %0, i32 noundef %1) #1 {
  %3 = alloca ptr, align 8
  %4 = alloca i32, align 4
  store ptr %0, ptr %3, align 8, !tbaa !40
  store i32 %1, ptr %4, align 4, !tbaa !27
  %5 = load ptr, ptr %3, align 8, !tbaa !40
  %6 = getelementptr inbounds nuw %struct.If_DsdObj_t_, ptr %5, i32 0, i32 2
  %7 = load i32, ptr %4, align 4, !tbaa !27
  %8 = sext i32 %7 to i64
  %9 = getelementptr inbounds [0 x i32], ptr %6, i64 0, i64 %8
  %10 = load i32, ptr %9, align 4, !tbaa !27
  ret i32 %10
}

; Function Attrs: inlinehint nounwind uwtable
define internal i32 @If_DsdObjFaninNum(ptr noundef %0) #1 {
  %2 = alloca ptr, align 8
  store ptr %0, ptr %2, align 8, !tbaa !40
  %3 = load ptr, ptr %2, align 8, !tbaa !40
  %4 = getelementptr inbounds nuw %struct.If_DsdObj_t_, ptr %3, i32 0, i32 1
  %5 = load i32, ptr %4, align 4
  %6 = lshr i32 %5, 27
  ret i32 %6
}

; Function Attrs: inlinehint nounwind uwtable
define internal i32 @Abc_LitNot(i32 noundef %0) #1 {
  %2 = alloca i32, align 4
  store i32 %0, ptr %2, align 4, !tbaa !27
  %3 = load i32, ptr %2, align 4, !tbaa !27
  %4 = xor i32 %3, 1
  ret i32 %4
}

; Function Attrs: inlinehint nounwind uwtable
define internal i32 @If_DsdObjType(ptr noundef %0) #1 {
  %2 = alloca ptr, align 8
  store ptr %0, ptr %2, align 8, !tbaa !40
  %3 = load ptr, ptr %2, align 8, !tbaa !40
  %4 = getelementptr inbounds nuw %struct.If_DsdObj_t_, ptr %3, i32 0, i32 1
  %5 = load i32, ptr %4, align 4
  %6 = and i32 %5, 7
  ret i32 %6
}

; Function Attrs: inlinehint nounwind uwtable
define internal ptr @If_DsdVecObj(ptr noundef %0, i32 noundef %1) #1 {
  %3 = alloca ptr, align 8
  %4 = alloca i32, align 4
  store ptr %0, ptr %3, align 8, !tbaa !22
  store i32 %1, ptr %4, align 4, !tbaa !27
  %5 = load ptr, ptr %3, align 8, !tbaa !22
  %6 = load i32, ptr %4, align 4, !tbaa !27
  %7 = call ptr @Vec_PtrEntry(ptr noundef %5, i32 noundef %6)
  ret ptr %7
}

; Function Attrs: inlinehint nounwind uwtable
define internal i32 @Abc_Lit2Var(i32 noundef %0) #1 {
  %2 = alloca i32, align 4
  store i32 %0, ptr %2, align 4, !tbaa !27
  %3 = load i32, ptr %2, align 4, !tbaa !27
  %4 = ashr i32 %3, 1
  ret i32 %4
}

; Function Attrs: nounwind uwtable
define i32 @If_DsdManPushInv_rec(ptr noundef %0, i32 noundef %1, ptr noundef %2) #0 {
  %4 = alloca ptr, align 8
  %5 = alloca i32, align 4
  %6 = alloca ptr, align 8
  %7 = alloca ptr, align 8
  %8 = alloca i32, align 4
  %9 = alloca i32, align 4
  store ptr %0, ptr %4, align 8, !tbaa !3
  store i32 %1, ptr %5, align 4, !tbaa !27
  store ptr %2, ptr %6, align 8, !tbaa !64
  call void @llvm.lifetime.start.p0(i64 8, ptr %7) #15
  call void @llvm.lifetime.start.p0(i64 4, ptr %8) #15
  call void @llvm.lifetime.start.p0(i64 4, ptr %9) #15
  %10 = load ptr, ptr %4, align 8, !tbaa !3
  %11 = getelementptr inbounds nuw %struct.If_DsdMan_t_, ptr %10, i32 0, i32 7
  %12 = load i32, ptr %5, align 4, !tbaa !27
  %13 = call i32 @Abc_Lit2Var(i32 noundef %12)
  %14 = call ptr @If_DsdVecObj(ptr noundef %11, i32 noundef %13)
  store ptr %14, ptr %7, align 8, !tbaa !40
  %15 = load ptr, ptr %7, align 8, !tbaa !40
  %16 = call i32 @If_DsdObjType(ptr noundef %15)
  %17 = icmp eq i32 %16, 2
  br i1 %17, label %18, label %27

18:                                               ; preds = %3
  %19 = load ptr, ptr %6, align 8, !tbaa !64
  %20 = getelementptr inbounds i8, ptr %19, i64 0
  %21 = load i8, ptr %20, align 1, !tbaa !124
  %22 = zext i8 %21 to i32
  %23 = call i32 @Abc_LitNot(i32 noundef %22)
  %24 = trunc i32 %23 to i8
  %25 = load ptr, ptr %6, align 8, !tbaa !64
  %26 = getelementptr inbounds i8, ptr %25, i64 0
  store i8 %24, ptr %26, align 1, !tbaa !124
  br label %108

27:                                               ; preds = %3
  %28 = load ptr, ptr %7, align 8, !tbaa !40
  %29 = call i32 @If_DsdObjType(ptr noundef %28)
  %30 = icmp eq i32 %29, 4
  br i1 %30, label %31, label %66

31:                                               ; preds = %27
  store i32 0, ptr %8, align 4, !tbaa !27
  br label %32

32:                                               ; preds = %62, %31
  %33 = load i32, ptr %8, align 4, !tbaa !27
  %34 = load ptr, ptr %7, align 8, !tbaa !40
  %35 = call i32 @If_DsdObjFaninNum(ptr noundef %34)
  %36 = icmp slt i32 %33, %35
  br i1 %36, label %37, label %42

37:                                               ; preds = %32
  %38 = load ptr, ptr %7, align 8, !tbaa !40
  %39 = load i32, ptr %8, align 4, !tbaa !27
  %40 = call i32 @If_DsdObjFaninLit(ptr noundef %38, i32 noundef %39)
  store i32 %40, ptr %9, align 4, !tbaa !27
  %41 = icmp ne i32 %40, 0
  br label %42

42:                                               ; preds = %37, %32
  %43 = phi i1 [ false, %32 ], [ %41, %37 ]
  br i1 %43, label %44, label %65

44:                                               ; preds = %42
  %45 = load ptr, ptr %4, align 8, !tbaa !3
  %46 = load i32, ptr %9, align 4, !tbaa !27
  %47 = call i32 @If_DsdManCheckInv_rec(ptr noundef %45, i32 noundef %46)
  %48 = icmp ne i32 %47, 0
  br i1 %48, label %49, label %54

49:                                               ; preds = %44
  %50 = load ptr, ptr %4, align 8, !tbaa !3
  %51 = load i32, ptr %9, align 4, !tbaa !27
  %52 = load ptr, ptr %6, align 8, !tbaa !64
  %53 = call i32 @If_DsdManPushInv_rec(ptr noundef %50, i32 noundef %51, ptr noundef %52)
  br label %65

54:                                               ; preds = %44
  %55 = load ptr, ptr %4, align 8, !tbaa !3
  %56 = getelementptr inbounds nuw %struct.If_DsdMan_t_, ptr %55, i32 0, i32 7
  %57 = load i32, ptr %9, align 4, !tbaa !27
  %58 = call i32 @If_DsdVecLitSuppSize(ptr noundef %56, i32 noundef %57)
  %59 = load ptr, ptr %6, align 8, !tbaa !64
  %60 = sext i32 %58 to i64
  %61 = getelementptr inbounds i8, ptr %59, i64 %60
  store ptr %61, ptr %6, align 8, !tbaa !64
  br label %62

62:                                               ; preds = %54
  %63 = load i32, ptr %8, align 4, !tbaa !27
  %64 = add nsw i32 %63, 1
  store i32 %64, ptr %8, align 4, !tbaa !27
  br label %32, !llvm.loop !206

65:                                               ; preds = %49, %42
  br label %107

66:                                               ; preds = %27
  %67 = load ptr, ptr %7, align 8, !tbaa !40
  %68 = call i32 @If_DsdObjType(ptr noundef %67)
  %69 = icmp eq i32 %68, 5
  br i1 %69, label %70, label %105

70:                                               ; preds = %66
  %71 = load ptr, ptr %4, align 8, !tbaa !3
  %72 = getelementptr inbounds nuw %struct.If_DsdMan_t_, ptr %71, i32 0, i32 7
  %73 = load ptr, ptr %7, align 8, !tbaa !40
  %74 = getelementptr inbounds nuw %struct.If_DsdObj_t_, ptr %73, i32 0, i32 2
  %75 = getelementptr inbounds [0 x i32], ptr %74, i64 0, i64 0
  %76 = load i32, ptr %75, align 4, !tbaa !27
  %77 = call i32 @If_DsdVecLitSuppSize(ptr noundef %72, i32 noundef %76)
  %78 = load ptr, ptr %6, align 8, !tbaa !64
  %79 = sext i32 %77 to i64
  %80 = getelementptr inbounds i8, ptr %78, i64 %79
  store ptr %80, ptr %6, align 8, !tbaa !64
  %81 = load ptr, ptr %4, align 8, !tbaa !3
  %82 = load ptr, ptr %7, align 8, !tbaa !40
  %83 = getelementptr inbounds nuw %struct.If_DsdObj_t_, ptr %82, i32 0, i32 2
  %84 = getelementptr inbounds [0 x i32], ptr %83, i64 0, i64 1
  %85 = load i32, ptr %84, align 4, !tbaa !27
  %86 = load ptr, ptr %6, align 8, !tbaa !64
  %87 = call i32 @If_DsdManPushInv_rec(ptr noundef %81, i32 noundef %85, ptr noundef %86)
  %88 = load ptr, ptr %4, align 8, !tbaa !3
  %89 = getelementptr inbounds nuw %struct.If_DsdMan_t_, ptr %88, i32 0, i32 7
  %90 = load ptr, ptr %7, align 8, !tbaa !40
  %91 = getelementptr inbounds nuw %struct.If_DsdObj_t_, ptr %90, i32 0, i32 2
  %92 = getelementptr inbounds [0 x i32], ptr %91, i64 0, i64 1
  %93 = load i32, ptr %92, align 4, !tbaa !27
  %94 = call i32 @If_DsdVecLitSuppSize(ptr noundef %89, i32 noundef %93)
  %95 = load ptr, ptr %6, align 8, !tbaa !64
  %96 = sext i32 %94 to i64
  %97 = getelementptr inbounds i8, ptr %95, i64 %96
  store ptr %97, ptr %6, align 8, !tbaa !64
  %98 = load ptr, ptr %4, align 8, !tbaa !3
  %99 = load ptr, ptr %7, align 8, !tbaa !40
  %100 = getelementptr inbounds nuw %struct.If_DsdObj_t_, ptr %99, i32 0, i32 2
  %101 = getelementptr inbounds [0 x i32], ptr %100, i64 0, i64 2
  %102 = load i32, ptr %101, align 4, !tbaa !27
  %103 = load ptr, ptr %6, align 8, !tbaa !64
  %104 = call i32 @If_DsdManPushInv_rec(ptr noundef %98, i32 noundef %102, ptr noundef %103)
  br label %106

105:                                              ; preds = %66
  br label %106

106:                                              ; preds = %105, %70
  br label %107

107:                                              ; preds = %106, %65
  br label %108

108:                                              ; preds = %107, %18
  call void @llvm.lifetime.end.p0(i64 4, ptr %9) #15
  call void @llvm.lifetime.end.p0(i64 4, ptr %8) #15
  call void @llvm.lifetime.end.p0(i64 8, ptr %7) #15
  ret i32 1
}