; Function Attrs: nofree nosync nounwind memory(read, argmem: readwrite, inaccessiblemem: none) uwtable
define noundef i32 @If_DsdManPushInv_rec(ptr noundef %0, i32 noundef %1, ptr noundef captures(none) %2) local_unnamed_addr #17 {
  %4 = getelementptr i8, ptr %0, i64 48
  %.val.pre = load ptr, ptr %4, align 8, !tbaa !23
  br label %tailrecurse.outer

tailrecurse.outer:                                ; preds = %32, %3
  %.val.ph = phi ptr [ %.val34, %32 ], [ %.val.pre, %3 ]
  %.tr41.ph = phi i32 [ %60, %32 ], [ %1, %3 ]
  %.tr42.ph = phi ptr [ %58, %32 ], [ %2, %3 ]
  br label %tailrecurse

tailrecurse:                                      ; preds = %19, %tailrecurse.outer
  %.tr41 = phi i32 [ %.tr41.ph, %tailrecurse.outer ], [ %18, %19 ]
  %.tr42 = phi ptr [ %.tr42.ph, %tailrecurse.outer ], [ %.056, %19 ]
  %5 = ashr i32 %.tr41, 1
  %6 = sext i32 %5 to i64
  %7 = getelementptr inbounds ptr, ptr %.val.ph, i64 %6
  %8 = load ptr, ptr %7, align 8, !tbaa !24
  %9 = getelementptr i8, ptr %8, i64 4
  %.val39 = load i32, ptr %9, align 4
  %10 = and i32 %.val39, 7
  switch i32 %10, label %.critedge [
    i32 2, label %13
    i32 4, label %.preheader
    i32 5, label %32
  ]

.preheader:                                       ; preds = %tailrecurse
  %.not63 = icmp ult i32 %.val39, 134217728
  br i1 %.not63, label %.critedge, label %.lr.ph

.lr.ph:                                           ; preds = %.preheader
  %11 = lshr i32 %.val39, 27
  %12 = getelementptr inbounds nuw i8, ptr %8, i64 8
  %wide.trip.count = zext nneg i32 %11 to i64
  br label %16

13:                                               ; preds = %tailrecurse
  %14 = load i8, ptr %.tr42, align 1, !tbaa !137
  %15 = xor i8 %14, 1
  store i8 %15, ptr %.tr42, align 1, !tbaa !137
  br label %.critedge

16:                                               ; preds = %.lr.ph, %21
  %indvars.iv = phi i64 [ 0, %.lr.ph ], [ %indvars.iv.next, %21 ]
  %.056 = phi ptr [ %.tr42, %.lr.ph ], [ %31, %21 ]
  %17 = getelementptr inbounds nuw [0 x i32], ptr %12, i64 0, i64 %indvars.iv
  %18 = load i32, ptr %17, align 4, !tbaa !40
  %.not = icmp eq i32 %18, 0
  br i1 %.not, label %.critedge, label %19

19:                                               ; preds = %16
  %20 = tail call i32 @If_DsdManCheckInv_rec(ptr noundef %0, i32 noundef %18)
  %.not33 = icmp eq i32 %20, 0
  br i1 %.not33, label %21, label %tailrecurse

21:                                               ; preds = %19
  %22 = ashr i32 %18, 1
  %23 = sext i32 %22 to i64
  %24 = getelementptr inbounds ptr, ptr %.val.ph, i64 %23
  %25 = load ptr, ptr %24, align 8, !tbaa !24
  %26 = getelementptr inbounds nuw i8, ptr %25, i64 4
  %27 = load i32, ptr %26, align 4
  %28 = lshr i32 %27, 3
  %29 = and i32 %28, 31
  %30 = zext nneg i32 %29 to i64
  %31 = getelementptr inbounds nuw i8, ptr %.056, i64 %30
  %indvars.iv.next = add nuw nsw i64 %indvars.iv, 1
  %exitcond.not = icmp eq i64 %indvars.iv.next, %wide.trip.count
  br i1 %exitcond.not, label %.critedge, label %16, !llvm.loop !202

32:                                               ; preds = %tailrecurse
  %33 = getelementptr inbounds nuw i8, ptr %8, i64 8
  %34 = load i32, ptr %33, align 4, !tbaa !40
  %35 = ashr i32 %34, 1
  %36 = sext i32 %35 to i64
  %37 = getelementptr inbounds ptr, ptr %.val.ph, i64 %36
  %38 = load ptr, ptr %37, align 8, !tbaa !24
  %39 = getelementptr inbounds nuw i8, ptr %38, i64 4
  %40 = load i32, ptr %39, align 4
  %41 = lshr i32 %40, 3
  %42 = and i32 %41, 31
  %43 = zext nneg i32 %42 to i64
  %44 = getelementptr inbounds nuw i8, ptr %.tr42, i64 %43
  %45 = getelementptr inbounds nuw i8, ptr %8, i64 12
  %46 = load i32, ptr %45, align 4, !tbaa !40
  %47 = tail call i32 @If_DsdManPushInv_rec(ptr noundef nonnull %0, i32 noundef %46, ptr noundef %44)
  %48 = load i32, ptr %45, align 4, !tbaa !40
  %.val34 = load ptr, ptr %4, align 8, !tbaa !23
  %49 = ashr i32 %48, 1
  %50 = sext i32 %49 to i64
  %51 = getelementptr inbounds ptr, ptr %.val34, i64 %50
  %52 = load ptr, ptr %51, align 8, !tbaa !24
  %53 = getelementptr inbounds nuw i8, ptr %52, i64 4
  %54 = load i32, ptr %53, align 4
  %55 = lshr i32 %54, 3
  %56 = and i32 %55, 31
  %57 = zext nneg i32 %56 to i64
  %58 = getelementptr inbounds nuw i8, ptr %44, i64 %57
  %59 = getelementptr inbounds nuw i8, ptr %8, i64 16
  %60 = load i32, ptr %59, align 4, !tbaa !40
  br label %tailrecurse.outer

.critedge:                                        ; preds = %tailrecurse, %.preheader, %16, %21, %13
  ret i32 1
}